target datalayout = "e-m:e-p270:32:32-p271:32:32-p272:64:64-i64:64-i128:128-f80:128-n8:16:32:64-S128"
target triple = "x86_64-pc-linux-gnu"

%"class.mu::ParserCallback" = type <{ ptr, i32, i32, i32, i32, i32, i8, [3 x i8] }>

; Function Attrs: mustprogress nounwind uwtable
define void @_ZN2mu14ParserCallbackC2EPFddEbiNS_8ECmdCodeE(ptr noundef nonnull align 8 dereferenceable(32) %0, ptr noundef %1, i1 noundef zeroext %2, i32 noundef %3, i32 noundef %4) unnamed_addr #5 align 2 {
  %6 = alloca ptr, align 8
  %7 = alloca ptr, align 8
  %8 = alloca i8, align 1
  %9 = alloca i32, align 4
  %10 = alloca i32, align 4
  store ptr %0, ptr %6, align 8, !tbaa !32
  store ptr %1, ptr %7, align 8, !tbaa !34
  %11 = zext i1 %2 to i8
  store i8 %11, ptr %8, align 1, !tbaa !35
  store i32 %3, ptr %9, align 4, !tbaa !51
  store i32 %4, ptr %10, align 4, !tbaa !52
  %12 = load ptr, ptr %6, align 8
  %13 = getelementptr inbounds nuw %"class.mu::ParserCallback", ptr %12, i32 0, i32 0
  %14 = load ptr, ptr %7, align 8, !tbaa !34
  store ptr %14, ptr %13, align 8, !tbaa !37
  %15 = getelementptr inbounds nuw %"class.mu::ParserCallback", ptr %12, i32 0, i32 1
  store i32 1, ptr %15, align 8, !tbaa !43
  %16 = getelementptr inbounds nuw %"class.mu::ParserCallback", ptr %12, i32 0, i32 2
  %17 = load i32, ptr %9, align 4, !tbaa !51
  store i32 %17, ptr %16, align 4, !tbaa !44
  %18 = getelementptr inbounds nuw %"class.mu::ParserCallback", ptr %12, i32 0, i32 3
  store i32 2, ptr %18, align 8, !tbaa !45
  %19 = getelementptr inbounds nuw %"class.mu::ParserCallback", ptr %12, i32 0, i32 4
  %20 = load i32, ptr %10, align 4, !tbaa !52
  store i32 %20, ptr %19, align 4, !tbaa !46
  %21 = getelementptr inbounds nuw %"class.mu::ParserCallback", ptr %12, i32 0, i32 5
  store i32 1, ptr %21, align 8, !tbaa !47
  %22 = getelementptr inbounds nuw %"class.mu::ParserCallback", ptr %12, i32 0, i32 6
  %23 = load i8, ptr %8, align 1, !tbaa !35, !range !48, !noundef !49
  %24 = trunc i8 %23 to i1
  %25 = zext i1 %24 to i8
  store i8 %25, ptr %22, align 4, !tbaa !50
  ret void
}

; Function Attrs: mustprogress nounwind uwtable
define void @_ZN2mu14ParserCallbackC2EPFddEb(ptr noundef nonnull align 8 dereferenceable(32) %0, ptr noundef %1, i1 noundef zeroext %2) unnamed_addr #5 align 2 {
  %4 = alloca ptr, align 8
  %5 = alloca ptr, align 8
  %6 = alloca i8, align 1
  store ptr %0, ptr %4, align 8, !tbaa !32
  store ptr %1, ptr %5, align 8, !tbaa !34
  %7 = zext i1 %2 to i8
  store i8 %7, ptr %6, align 1, !tbaa !35
  %8 = load ptr, ptr %4, align 8
  %9 = load ptr, ptr %5, align 8, !tbaa !34
  %10 = load i8, ptr %6, align 1, !tbaa !35, !range !48, !noundef !49
  %11 = trunc i8 %10 to i1
  call void @_ZN2mu14ParserCallbackC2EPFddEbiNS_8ECmdCodeE(ptr noundef nonnull align 8 dereferenceable(32) %8, ptr noundef %9, i1 noundef zeroext %11, i32 noundef -1, i32 noundef 26)
  ret void
}